target datalayout = "e-m:e-p270:32:32-p271:32:32-p272:64:64-i64:64-i128:128-f80:128-n8:16:32:64-S128"
target triple = "x86_64-unknown-linux-gnu"

%class.symbol = type { ptr }
%"class.sat::extension" = type { ptr, i8, i32, %class.symbol, ptr }
%class.ptr_vector = type { %class.vector }
%class.vector = type { ptr }
%"class.euf::justification" = type { i32, %union.anon.42, %union.anon.43 }
%union.anon.42 = type { ptr }
%union.anon.43 = type { ptr }
%"class.euf::enode" = type { ptr, i8, i8, i8, i8, i8, i8, i8, i8, i8, i32, i32, i32, i32, i32, i32, %class.ptr_vector, ptr, ptr, ptr, ptr, %class.id_var_list, %"class.euf::justification", %"class.euf::justification", i32, i8, %class.approx_set, %class.approx_set, [0 x ptr] }
%class.id_var_list = type { i32, ptr }
%class.approx_set = type { %class.approx_set_tpl.265 }
%class.approx_set_tpl.265 = type { i64 }

; Function Attrs: mustprogress nounwind uwtable
define linkonce_odr hidden noundef ptr @_ZNK11id_var_listILin1ELin1EE8get_nextEv(ptr noundef nonnull align 8 dereferenceable(16) %this) #4 comdat align 2 {
entry:
  %this.addr = alloca ptr, align 8
  store ptr %this, ptr %this.addr, align 8
  %this1 = load ptr, ptr %this.addr, align 8
  %m_next = getelementptr inbounds %class.id_var_list, ptr %this1, i32 0, i32 1
  %0 = load ptr, ptr %m_next, align 8
  ret ptr %0
}

; Function Attrs: mustprogress nounwind uwtable
define linkonce_odr hidden noundef i32 @_ZNK11id_var_listILin1ELin1EE7get_varEv(ptr noundef nonnull align 8 dereferenceable(16) %this) #4 comdat align 2 {
entry:
  %this.addr = alloca ptr, align 8
  store ptr %this, ptr %this.addr, align 8
  %this1 = load ptr, ptr %this.addr, align 8
  %bf.load = load i32, ptr %this1, align 8
  %bf.ashr = ashr i32 %bf.load, 8
  ret i32 %bf.ashr
}

; Function Attrs: mustprogress nounwind uwtable
define linkonce_odr hidden noundef i32 @_ZNK11id_var_listILin1ELin1EE6get_idEv(ptr noundef nonnull align 8 dereferenceable(16) %this) #4 comdat align 2 {
entry:
  %this.addr = alloca ptr, align 8
  store ptr %this, ptr %this.addr, align 8
  %this1 = load ptr, ptr %this.addr, align 8
  %bf.load = load i32, ptr %this1, align 8
  %bf.shl = shl i32 %bf.load, 24
  %bf.ashr = ashr i32 %bf.shl, 24
  ret i32 %bf.ashr
}

; Function Attrs: mustprogress uwtable
define linkonce_odr hidden noundef zeroext i1 @_ZNK11id_var_listILin1ELin1EE5emptyEv(ptr noundef nonnull align 8 dereferenceable(16) %this) #5 comdat align 2 {
entry:
  %this.addr = alloca ptr, align 8
  store ptr %this, ptr %this.addr, align 8
  %this1 = load ptr, ptr %this.addr, align 8
  %call = call noundef i32 @_ZNK11id_var_listILin1ELin1EE7get_varEv(ptr noundef nonnull align 8 dereferenceable(16) %this1)
  %cmp = icmp eq i32 %call, -1
  ret i1 %cmp
}

; Function Attrs: mustprogress uwtable
define linkonce_odr hidden noundef i32 @_ZNK11id_var_listILin1ELin1EE4findEi(ptr noundef nonnull align 8 dereferenceable(16) %this, i32 noundef %id) #5 comdat align 2 {
entry:
  %retval = alloca i32, align 4
  %this.addr = alloca ptr, align 8
  %id.addr = alloca i32, align 4
  %l = alloca ptr, align 8
  store ptr %this, ptr %this.addr, align 8
  store i32 %id, ptr %id.addr, align 4
  %this1 = load ptr, ptr %this.addr, align 8
  %call = call noundef zeroext i1 @_ZNK11id_var_listILin1ELin1EE5emptyEv(ptr noundef nonnull align 8 dereferenceable(16) %this1)
  br i1 %call, label %if.then, label %if.end

if.then:                                          ; preds = %entry
  store i32 -1, ptr %retval, align 4
  br label %return

if.end:                                           ; preds = %entry
  store ptr %this1, ptr %l, align 8
  br label %do.body

do.body:                                          ; preds = %do.cond, %if.end
  %0 = load i32, ptr %id.addr, align 4
  %1 = load ptr, ptr %l, align 8
  %call2 = call noundef i32 @_ZNK11id_var_listILin1ELin1EE6get_idEv(ptr noundef nonnull align 8 dereferenceable(16) %1)
  %cmp = icmp eq i32 %0, %call2
  br i1 %cmp, label %if.then3, label %if.end5

if.then3:                                         ; preds = %do.body
  %2 = load ptr, ptr %l, align 8
  %call4 = call noundef i32 @_ZNK11id_var_listILin1ELin1EE7get_varEv(ptr noundef nonnull align 8 dereferenceable(16) %2)
  store i32 %call4, ptr %retval, align 4
  br label %return

if.end5:                                          ; preds = %do.body
  %3 = load ptr, ptr %l, align 8
  %call6 = call noundef ptr @_ZNK11id_var_listILin1ELin1EE8get_nextEv(ptr noundef nonnull align 8 dereferenceable(16) %3)
  store ptr %call6, ptr %l, align 8
  br label %do.cond

do.cond:                                          ; preds = %if.end5
  %4 = load ptr, ptr %l, align 8
  %tobool = icmp ne ptr %4, null
  br i1 %tobool, label %do.body, label %do.end, !llvm.loop !15

do.end:                                           ; preds = %do.cond
  store i32 -1, ptr %retval, align 4
  br label %return

return:                                           ; preds = %do.end, %if.then3, %if.then
  %5 = load i32, ptr %retval, align 4
  ret i32 %5
}

; Function Attrs: mustprogress uwtable
define linkonce_odr hidden noundef i32 @_ZNK3euf5enode10get_th_varEi(ptr noundef nonnull align 8 dereferenceable(176) %this, i32 noundef %id) #5 comdat align 2 {
entry:
  %this.addr = alloca ptr, align 8
  %id.addr = alloca i32, align 4
  store ptr %this, ptr %this.addr, align 8
  store i32 %id, ptr %id.addr, align 4
  %this1 = load ptr, ptr %this.addr, align 8
  %m_th_vars = getelementptr inbounds %"class.euf::enode", ptr %this1, i32 0, i32 21
  %0 = load i32, ptr %id.addr, align 4
  %call = call noundef i32 @_ZNK11id_var_listILin1ELin1EE4findEi(ptr noundef nonnull align 8 dereferenceable(16) %m_th_vars, i32 noundef %0)
  ret i32 %call
}

; Function Attrs: mustprogress uwtable
define linkonce_odr hidden noundef zeroext i1 @_ZNK3euf5enode14is_attached_toEi(ptr noundef nonnull align 8 dereferenceable(176) %this, i32 noundef %id) #5 comdat align 2 {
entry:
  %this.addr = alloca ptr, align 8
  %id.addr = alloca i32, align 4
  store ptr %this, ptr %this.addr, align 8
  store i32 %id, ptr %id.addr, align 4
  %this1 = load ptr, ptr %this.addr, align 8
  %0 = load i32, ptr %id.addr, align 4
  %call = call noundef i32 @_ZNK3euf5enode10get_th_varEi(ptr noundef nonnull align 8 dereferenceable(176) %this1, i32 noundef %0)
  %cmp = icmp ne i32 %call, -1
  ret i1 %cmp
}

; Function Attrs: mustprogress nounwind uwtable
define linkonce_odr hidden noundef i32 @_ZNK3sat9extension6get_idEv(ptr noundef nonnull align 8 dereferenceable(32) %this) #4 comdat align 2 {
entry:
  %this.addr = alloca ptr, align 8
  store ptr %this, ptr %this.addr, align 8
  %this1 = load ptr, ptr %this.addr, align 8
  %m_id = getelementptr inbounds %"class.sat::extension", ptr %this1, i32 0, i32 2
  %0 = load i32, ptr %m_id, align 4
  ret i32 %0
}

; Function Attrs: mustprogress uwtable
define hidden noundef zeroext i1 @_ZN6recfun6solver7visitedEP4expr(ptr noundef nonnull align 8 dereferenceable(268) %this, ptr noundef %e) unnamed_addr #5 align 2 {
entry:
  %this.addr = alloca ptr, align 8
  %e.addr = alloca ptr, align 8
  %n = alloca ptr, align 8
  store ptr %this, ptr %this.addr, align 8
  store ptr %e, ptr %e.addr, align 8
  %this1 = load ptr, ptr %this.addr, align 8
  %0 = load ptr, ptr %e.addr, align 8
  %call = call noundef ptr @_ZNK3euf13th_euf_solver10expr2enodeEP4expr(ptr noundef nonnull align 8 dereferenceable(108) %this1, ptr noundef %0)
  store ptr %call, ptr %n, align 8
  %1 = load ptr, ptr %n, align 8
  %tobool = icmp ne ptr %1, null
  br i1 %tobool, label %land.rhs, label %land.end

land.rhs:                                         ; preds = %entry
  %2 = load ptr, ptr %n, align 8
  %call2 = call noundef i32 @_ZNK3sat9extension6get_idEv(ptr noundef nonnull align 8 dereferenceable(32) %this1)
  %call3 = call noundef zeroext i1 @_ZNK3euf5enode14is_attached_toEi(ptr noundef nonnull align 8 dereferenceable(176) %2, i32 noundef %call2)
  br label %land.end

land.end:                                         ; preds = %land.rhs, %entry
  %3 = phi i1 [ false, %entry ], [ %call3, %land.rhs ]
  ret i1 %3
}

; Function Attrs: uwtable
define hidden noundef zeroext i1 @_ZThn48_N6recfun6solver7visitedEP4expr(ptr noundef %this, ptr noundef %e) unnamed_addr #0 align 2 {
entry:
  %this.addr = alloca ptr, align 8
  %e.addr = alloca ptr, align 8
  store ptr %this, ptr %this.addr, align 8
  store ptr %e, ptr %e.addr, align 8
  %this1 = load ptr, ptr %this.addr, align 8
  %0 = getelementptr inbounds i8, ptr %this1, i64 -48
  %1 = load ptr, ptr %e.addr, align 8
  %call = tail call noundef zeroext i1 @_ZN6recfun6solver7visitedEP4expr(ptr noundef nonnull align 8 dereferenceable(268) %0, ptr noundef %1)
  ret i1 %call
}